target datalayout = "e-m:e-p270:32:32-p271:32:32-p272:64:64-i64:64-i128:128-f80:128-n8:16:32:64-S128"
target triple = "x86_64-pc-linux-gnu"

@.str.35 = private unnamed_addr constant [7 x i8] c"EPSV\0D\0A\00", align 1
@.str.36 = private unnamed_addr constant [7 x i8] c"PASV\0D\0A\00", align 1

; Function Attrs: inlinehint nounwind uwtable
define internal i32 @get_ftp_result(ptr noundef %0, ptr noundef %1, i64 noundef %2) #4 {
  %4 = alloca ptr, align 8
  %5 = alloca ptr, align 8
  %6 = alloca i64, align 8
  store ptr %0, ptr %4, align 8, !tbaa !17
  store ptr %1, ptr %5, align 8, !tbaa !9
  store i64 %2, ptr %6, align 8, !tbaa !21
  %7 = load ptr, ptr %5, align 8, !tbaa !9
  %8 = getelementptr inbounds i8, ptr %7, i64 0
  store i8 0, ptr %8, align 1, !tbaa !25
  br label %9

9:                                                ; preds = %66, %3
  %10 = load ptr, ptr %4, align 8, !tbaa !17
  %11 = load ptr, ptr %5, align 8, !tbaa !9
  %12 = load i64, ptr %6, align 8, !tbaa !21
  %13 = sub i64 %12, 1
  %14 = call ptr @_php_stream_get_line(ptr noundef %10, ptr noundef %11, i64 noundef %13, ptr noundef null)
  %15 = icmp ne ptr %14, null
  br i1 %15, label %16, label %64

16:                                               ; preds = %9
  %17 = call ptr @__ctype_b_loc() #13
  %18 = load ptr, ptr %17, align 8, !tbaa !64
  %19 = load ptr, ptr %5, align 8, !tbaa !9
  %20 = getelementptr inbounds i8, ptr %19, i64 0
  %21 = load i8, ptr %20, align 1, !tbaa !25
  %22 = sext i8 %21 to i32
  %23 = sext i32 %22 to i64
  %24 = getelementptr inbounds i16, ptr %18, i64 %23
  %25 = load i16, ptr %24, align 2, !tbaa !40
  %26 = zext i16 %25 to i32
  %27 = and i32 %26, 2048
  %28 = icmp ne i32 %27, 0
  br i1 %28, label %29, label %61

29:                                               ; preds = %16
  %30 = call ptr @__ctype_b_loc() #13
  %31 = load ptr, ptr %30, align 8, !tbaa !64
  %32 = load ptr, ptr %5, align 8, !tbaa !9
  %33 = getelementptr inbounds i8, ptr %32, i64 1
  %34 = load i8, ptr %33, align 1, !tbaa !25
  %35 = sext i8 %34 to i32
  %36 = sext i32 %35 to i64
  %37 = getelementptr inbounds i16, ptr %31, i64 %36
  %38 = load i16, ptr %37, align 2, !tbaa !40
  %39 = zext i16 %38 to i32
  %40 = and i32 %39, 2048
  %41 = icmp ne i32 %40, 0
  br i1 %41, label %42, label %61

42:                                               ; preds = %29
  %43 = call ptr @__ctype_b_loc() #13
  %44 = load ptr, ptr %43, align 8, !tbaa !64
  %45 = load ptr, ptr %5, align 8, !tbaa !9
  %46 = getelementptr inbounds i8, ptr %45, i64 2
  %47 = load i8, ptr %46, align 1, !tbaa !25
  %48 = sext i8 %47 to i32
  %49 = sext i32 %48 to i64
  %50 = getelementptr inbounds i16, ptr %44, i64 %49
  %51 = load i16, ptr %50, align 2, !tbaa !40
  %52 = zext i16 %51 to i32
  %53 = and i32 %52, 2048
  %54 = icmp ne i32 %53, 0
  br i1 %54, label %55, label %61

55:                                               ; preds = %42
  %56 = load ptr, ptr %5, align 8, !tbaa !9
  %57 = getelementptr inbounds i8, ptr %56, i64 3
  %58 = load i8, ptr %57, align 1, !tbaa !25
  %59 = sext i8 %58 to i32
  %60 = icmp eq i32 %59, 32
  br label %61

61:                                               ; preds = %55, %42, %29, %16
  %62 = phi i1 [ false, %42 ], [ false, %29 ], [ false, %16 ], [ %60, %55 ]
  %63 = xor i1 %62, true
  br label %64

64:                                               ; preds = %61, %9
  %65 = phi i1 [ false, %9 ], [ %63, %61 ]
  br i1 %65, label %66, label %67

66:                                               ; preds = %64
  br label %9

67:                                               ; preds = %64
  %68 = load ptr, ptr %5, align 8, !tbaa !9
  %69 = call i64 @strtol(ptr noundef %68, ptr noundef null, i32 noundef 10) #11
  %70 = trunc i64 %69 to i32
  ret i32 %70
}

; Function Attrs: nounwind uwtable
define internal zeroext i16 @php_fopen_do_pasv(ptr noundef %0, ptr noundef %1, i64 noundef %2, ptr noundef %3) #0 {
  %5 = alloca i16, align 2
  %6 = alloca ptr, align 8
  %7 = alloca ptr, align 8
  %8 = alloca i64, align 8
  %9 = alloca ptr, align 8
  %10 = alloca [512 x i8], align 16
  %11 = alloca i32, align 4
  %12 = alloca i32, align 4
  %13 = alloca i16, align 2
  %14 = alloca ptr, align 8
  %15 = alloca ptr, align 8
  %16 = alloca ptr, align 8
  %17 = alloca i32, align 4
  store ptr %0, ptr %6, align 8, !tbaa !17
  store ptr %1, ptr %7, align 8, !tbaa !9
  store i64 %2, ptr %8, align 8, !tbaa !21
  store ptr %3, ptr %9, align 8, !tbaa !72
  call void @llvm.lifetime.start.p0(i64 512, ptr %10) #11
  call void @llvm.lifetime.start.p0(i64 4, ptr %11) #11
  call void @llvm.lifetime.start.p0(i64 4, ptr %12) #11
  call void @llvm.lifetime.start.p0(i64 2, ptr %13) #11
  call void @llvm.lifetime.start.p0(i64 8, ptr %14) #11
  call void @llvm.lifetime.start.p0(i64 8, ptr %15) #11
  call void @llvm.lifetime.start.p0(i64 8, ptr %16) #11
  store ptr null, ptr %16, align 8, !tbaa !9
  %18 = load ptr, ptr %6, align 8, !tbaa !17
  %19 = call i64 @_php_stream_write(ptr noundef %18, ptr noundef @.str.35, i64 noundef 6)
  %20 = load ptr, ptr %6, align 8, !tbaa !17
  %21 = getelementptr inbounds [512 x i8], ptr %10, i64 0, i64 0
  %22 = call i32 @get_ftp_result(ptr noundef %20, ptr noundef %21, i64 noundef 512)
  store i32 %22, ptr %11, align 4, !tbaa !11
  %23 = load i32, ptr %11, align 4, !tbaa !11
  %24 = icmp ne i32 %23, 229
  br i1 %24, label %25, label %140

25:                                               ; preds = %4
  %26 = load ptr, ptr %6, align 8, !tbaa !17
  %27 = call i64 @_php_stream_write(ptr noundef %26, ptr noundef @.str.36, i64 noundef 6)
  %28 = load ptr, ptr %6, align 8, !tbaa !17
  %29 = getelementptr inbounds [512 x i8], ptr %10, i64 0, i64 0
  %30 = call i32 @get_ftp_result(ptr noundef %28, ptr noundef %29, i64 noundef 512)
  store i32 %30, ptr %11, align 4, !tbaa !11
  %31 = load i32, ptr %11, align 4, !tbaa !11
  %32 = icmp ne i32 %31, 227
  br i1 %32, label %33, label %34

33:                                               ; preds = %25
  store i16 0, ptr %5, align 2
  store i32 1, ptr %17, align 4
  br label %184

34:                                               ; preds = %25
  %35 = getelementptr inbounds [512 x i8], ptr %10, i64 0, i64 0
  store ptr %35, ptr %14, align 8, !tbaa !9
  %36 = load ptr, ptr %14, align 8, !tbaa !9
  %37 = getelementptr inbounds i8, ptr %36, i64 4
  store ptr %37, ptr %14, align 8, !tbaa !9
  br label %38

38:                                               ; preds = %59, %34
  %39 = load ptr, ptr %14, align 8, !tbaa !9
  %40 = load i8, ptr %39, align 1, !tbaa !25
  %41 = sext i8 %40 to i32
  %42 = icmp ne i32 %41, 0
  br i1 %42, label %43, label %56

43:                                               ; preds = %38
  %44 = call ptr @__ctype_b_loc() #13
  %45 = load ptr, ptr %44, align 8, !tbaa !64
  %46 = load ptr, ptr %14, align 8, !tbaa !9
  %47 = load i8, ptr %46, align 1, !tbaa !25
  %48 = sext i8 %47 to i32
  %49 = sext i32 %48 to i64
  %50 = getelementptr inbounds i16, ptr %45, i64 %49
  %51 = load i16, ptr %50, align 2, !tbaa !40
  %52 = zext i16 %51 to i32
  %53 = and i32 %52, 2048
  %54 = icmp ne i32 %53, 0
  %55 = xor i1 %54, true
  br label %56

56:                                               ; preds = %43, %38
  %57 = phi i1 [ false, %38 ], [ %55, %43 ]
  br i1 %57, label %58, label %62

58:                                               ; preds = %56
  br label %59

59:                                               ; preds = %58
  %60 = load ptr, ptr %14, align 8, !tbaa !9
  %61 = getelementptr inbounds nuw i8, ptr %60, i32 1
  store ptr %61, ptr %14, align 8, !tbaa !9
  br label %38

62:                                               ; preds = %56
  %63 = load ptr, ptr %14, align 8, !tbaa !9
  %64 = load i8, ptr %63, align 1, !tbaa !25
  %65 = icmp ne i8 %64, 0
  br i1 %65, label %67, label %66

66:                                               ; preds = %62
  store i16 0, ptr %5, align 2
  store i32 1, ptr %17, align 4
  br label %184

67:                                               ; preds = %62
  %68 = load ptr, ptr %14, align 8, !tbaa !9
  store ptr %68, ptr %16, align 8, !tbaa !9
  store i32 0, ptr %12, align 4, !tbaa !11
  br label %69

69:                                               ; preds = %99, %67
  %70 = load i32, ptr %12, align 4, !tbaa !11
  %71 = icmp slt i32 %70, 4
  br i1 %71, label %72, label %102

72:                                               ; preds = %69
  br label %73

73:                                               ; preds = %86, %72
  %74 = call ptr @__ctype_b_loc() #13
  %75 = load ptr, ptr %74, align 8, !tbaa !64
  %76 = load ptr, ptr %14, align 8, !tbaa !9
  %77 = load i8, ptr %76, align 1, !tbaa !25
  %78 = sext i8 %77 to i32
  %79 = sext i32 %78 to i64
  %80 = getelementptr inbounds i16, ptr %75, i64 %79
  %81 = load i16, ptr %80, align 2, !tbaa !40
  %82 = zext i16 %81 to i32
  %83 = and i32 %82, 2048
  %84 = icmp ne i32 %83, 0
  br i1 %84, label %85, label %89

85:                                               ; preds = %73
  br label %86

86:                                               ; preds = %85
  %87 = load ptr, ptr %14, align 8, !tbaa !9
  %88 = getelementptr inbounds nuw i8, ptr %87, i32 1
  store ptr %88, ptr %14, align 8, !tbaa !9
  br label %73

89:                                               ; preds = %73
  %90 = load ptr, ptr %14, align 8, !tbaa !9
  %91 = load i8, ptr %90, align 1, !tbaa !25
  %92 = sext i8 %91 to i32
  %93 = icmp ne i32 %92, 44
  br i1 %93, label %94, label %95

94:                                               ; preds = %89
  store i16 0, ptr %5, align 2
  store i32 1, ptr %17, align 4
  br label %184

95:                                               ; preds = %89
  %96 = load ptr, ptr %14, align 8, !tbaa !9
  store i8 46, ptr %96, align 1, !tbaa !25
  %97 = load ptr, ptr %14, align 8, !tbaa !9
  %98 = getelementptr inbounds nuw i8, ptr %97, i32 1
  store ptr %98, ptr %14, align 8, !tbaa !9
  br label %99

99:                                               ; preds = %95
  %100 = load i32, ptr %12, align 4, !tbaa !11
  %101 = add nsw i32 %100, 1
  store i32 %101, ptr %12, align 4, !tbaa !11
  br label %69

102:                                              ; preds = %69
  %103 = load ptr, ptr %14, align 8, !tbaa !9
  %104 = getelementptr inbounds i8, ptr %103, i64 -1
  store i8 0, ptr %104, align 1, !tbaa !25
  %105 = load ptr, ptr %7, align 8, !tbaa !9
  %106 = load ptr, ptr %16, align 8, !tbaa !9
  %107 = load i64, ptr %8, align 8, !tbaa !21
  call void @llvm.memcpy.p0.p0.i64(ptr align 1 %105, ptr align 1 %106, i64 %107, i1 false)
  %108 = load ptr, ptr %7, align 8, !tbaa !9
  %109 = load i64, ptr %8, align 8, !tbaa !21
  %110 = sub i64 %109, 1
  %111 = getelementptr inbounds nuw i8, ptr %108, i64 %110
  store i8 0, ptr %111, align 1, !tbaa !25
  %112 = load ptr, ptr %7, align 8, !tbaa !9
  store ptr %112, ptr %16, align 8, !tbaa !9
  %113 = load ptr, ptr %14, align 8, !tbaa !9
  %114 = call i64 @strtoul(ptr noundef %113, ptr noundef %15, i32 noundef 10) #11
  %115 = trunc i64 %114 to i16
  %116 = zext i16 %115 to i32
  %117 = mul nsw i32 %116, 256
  %118 = trunc i32 %117 to i16
  store i16 %118, ptr %13, align 2, !tbaa !40
  %119 = load ptr, ptr %15, align 8, !tbaa !9
  %120 = icmp eq ptr %119, null
  br i1 %120, label %121, label %122

121:                                              ; preds = %102
  store i16 0, ptr %5, align 2
  store i32 1, ptr %17, align 4
  br label %184

122:                                              ; preds = %102
  %123 = load ptr, ptr %15, align 8, !tbaa !9
  store ptr %123, ptr %14, align 8, !tbaa !9
  %124 = load ptr, ptr %14, align 8, !tbaa !9
  %125 = load i8, ptr %124, align 1, !tbaa !25
  %126 = sext i8 %125 to i32
  %127 = icmp ne i32 %126, 44
  br i1 %127, label %128, label %129

128:                                              ; preds = %122
  store i16 0, ptr %5, align 2
  store i32 1, ptr %17, align 4
  br label %184

129:                                              ; preds = %122
  %130 = load ptr, ptr %14, align 8, !tbaa !9
  %131 = getelementptr inbounds nuw i8, ptr %130, i32 1
  store ptr %131, ptr %14, align 8, !tbaa !9
  %132 = load ptr, ptr %14, align 8, !tbaa !9
  %133 = call i64 @strtoul(ptr noundef %132, ptr noundef %15, i32 noundef 10) #11
  %134 = trunc i64 %133 to i16
  %135 = zext i16 %134 to i32
  %136 = load i16, ptr %13, align 2, !tbaa !40
  %137 = zext i16 %136 to i32
  %138 = add nsw i32 %137, %135
  %139 = trunc i32 %138 to i16
  store i16 %139, ptr %13, align 2, !tbaa !40
  br label %172

140:                                              ; preds = %4
  store i32 0, ptr %12, align 4, !tbaa !11
  %141 = getelementptr inbounds [512 x i8], ptr %10, i64 0, i64 0
  %142 = getelementptr inbounds i8, ptr %141, i64 4
  store ptr %142, ptr %14, align 8, !tbaa !9
  br label %143

143:                                              ; preds = %160, %140
  %144 = load ptr, ptr %14, align 8, !tbaa !9
  %145 = load i8, ptr %144, align 1, !tbaa !25
  %146 = icmp ne i8 %145, 0
  br i1 %146, label %147, label %163

147:                                              ; preds = %143
  %148 = load ptr, ptr %14, align 8, !tbaa !9
  %149 = load i8, ptr %148, align 1, !tbaa !25
  %150 = sext i8 %149 to i32
  %151 = icmp eq i32 %150, 124
  br i1 %151, label %152, label %159

152:                                              ; preds = %147
  %153 = load i32, ptr %12, align 4, !tbaa !11
  %154 = add nsw i32 %153, 1
  store i32 %154, ptr %12, align 4, !tbaa !11
  %155 = load i32, ptr %12, align 4, !tbaa !11
  %156 = icmp eq i32 %155, 3
  br i1 %156, label %157, label %158

157:                                              ; preds = %152
  br label %163

158:                                              ; preds = %152
  br label %159

159:                                              ; preds = %158, %147
  br label %160

160:                                              ; preds = %159
  %161 = load ptr, ptr %14, align 8, !tbaa !9
  %162 = getelementptr inbounds nuw i8, ptr %161, i32 1
  store ptr %162, ptr %14, align 8, !tbaa !9
  br label %143

163:                                              ; preds = %157, %143
  %164 = load i32, ptr %12, align 4, !tbaa !11
  %165 = icmp slt i32 %164, 3
  br i1 %165, label %166, label %167

166:                                              ; preds = %163
  store i16 0, ptr %5, align 2
  store i32 1, ptr %17, align 4
  br label %184

167:                                              ; preds = %163
  %168 = load ptr, ptr %14, align 8, !tbaa !9
  %169 = getelementptr inbounds i8, ptr %168, i64 1
  %170 = call i64 @strtoul(ptr noundef %169, ptr noundef %15, i32 noundef 10) #11
  %171 = trunc i64 %170 to i16
  store i16 %171, ptr %13, align 2, !tbaa !40
  br label %172

172:                                              ; preds = %167, %129
  %173 = load ptr, ptr %15, align 8, !tbaa !9
  %174 = icmp eq ptr %173, null
  br i1 %174, label %175, label %176

175:                                              ; preds = %172
  store i16 0, ptr %5, align 2
  store i32 1, ptr %17, align 4
  br label %184

176:                                              ; preds = %172
  %177 = load ptr, ptr %9, align 8, !tbaa !72
  %178 = icmp ne ptr %177, null
  br i1 %178, label %179, label %182

179:                                              ; preds = %176
  %180 = load ptr, ptr %16, align 8, !tbaa !9
  %181 = load ptr, ptr %9, align 8, !tbaa !72
  store ptr %180, ptr %181, align 8, !tbaa !9
  br label %182

182:                                              ; preds = %179, %176
  %183 = load i16, ptr %13, align 2, !tbaa !40
  store i16 %183, ptr %5, align 2
  store i32 1, ptr %17, align 4
  br label %184

184:                                              ; preds = %182, %175, %166, %128, %121, %94, %66, %33
  call void @llvm.lifetime.end.p0(i64 8, ptr %16) #11
  call void @llvm.lifetime.end.p0(i64 8, ptr %15) #11
  call void @llvm.lifetime.end.p0(i64 8, ptr %14) #11
  call void @llvm.lifetime.end.p0(i64 2, ptr %13) #11
  call void @llvm.lifetime.end.p0(i64 4, ptr %12) #11
  call void @llvm.lifetime.end.p0(i64 4, ptr %11) #11
  call void @llvm.lifetime.end.p0(i64 512, ptr %10) #11
  %185 = load i16, ptr %5, align 2
  ret i16 %185
}