; Function Attrs: nounwind uwtable
define internal fastcc zeroext i16 @php_fopen_do_pasv(ptr noundef nonnull %0, ptr noundef nonnull %1, ptr noundef nonnull writeonly captures(none) %2) unnamed_addr #0 {
  %4 = alloca [512 x i8], align 16
  %5 = alloca ptr, align 8
  call void @llvm.lifetime.start.p0(i64 512, ptr nonnull %4) #15
  call void @llvm.lifetime.start.p0(i64 8, ptr nonnull %5) #15
  %6 = tail call i64 @_php_stream_write(ptr noundef nonnull %0, ptr noundef nonnull @.str.35, i64 noundef 6) #15
  store i8 0, ptr %4, align 16, !tbaa !17
  %7 = getelementptr inbounds nuw i8, ptr %4, i64 3
  %8 = call ptr @_php_stream_get_line(ptr noundef nonnull %0, ptr noundef nonnull %4, i64 noundef 511, ptr noundef null) #15
  %.not14.i = icmp eq ptr %8, null
  br i1 %.not14.i, label %get_ftp_result.exit, label %.lr.ph.i

.lr.ph.i:                                         ; preds = %3
  %9 = tail call ptr @__ctype_b_loc() #17
  %10 = getelementptr inbounds nuw i8, ptr %4, i64 1
  %11 = getelementptr inbounds nuw i8, ptr %4, i64 2
  br label %12

12:                                               ; preds = %.backedge.i, %.lr.ph.i
  %13 = load ptr, ptr %9, align 8, !tbaa !18
  %14 = load i8, ptr %4, align 16, !tbaa !17
  %15 = sext i8 %14 to i64
  %16 = getelementptr inbounds i16, ptr %13, i64 %15
  %17 = load i16, ptr %16, align 2, !tbaa !20
  %18 = and i16 %17, 2048
  %.not8.i = icmp eq i16 %18, 0
  br i1 %.not8.i, label %.backedge.i, label %19

19:                                               ; preds = %12
  %20 = load i8, ptr %10, align 1, !tbaa !17
  %21 = sext i8 %20 to i64
  %22 = getelementptr inbounds i16, ptr %13, i64 %21
  %23 = load i16, ptr %22, align 2, !tbaa !20
  %24 = and i16 %23, 2048
  %.not9.i = icmp eq i16 %24, 0
  br i1 %.not9.i, label %.backedge.i, label %25

25:                                               ; preds = %19
  %26 = load i8, ptr %11, align 2, !tbaa !17
  %27 = sext i8 %26 to i64
  %28 = getelementptr inbounds i16, ptr %13, i64 %27
  %29 = load i16, ptr %28, align 2, !tbaa !20
  %30 = and i16 %29, 2048
  %.not10.i = icmp ne i16 %30, 0
  %31 = load i8, ptr %7, align 1
  %.not13.i = icmp eq i8 %31, 32
  %or.cond = select i1 %.not10.i, i1 %.not13.i, i1 false
  br i1 %or.cond, label %get_ftp_result.exit, label %.backedge.i

.backedge.i:                                      ; preds = %25, %19, %12
  %32 = call ptr @_php_stream_get_line(ptr noundef nonnull %0, ptr noundef nonnull %4, i64 noundef 511, ptr noundef null) #15
  %.not.i = icmp eq ptr %32, null
  br i1 %.not.i, label %get_ftp_result.exit, label %12

get_ftp_result.exit:                              ; preds = %25, %.backedge.i, %3
  %33 = call i64 @strtol(ptr noundef nonnull captures(none) %4, ptr noundef null, i32 noundef 10) #15
  %34 = and i64 %33, 4294967295
  %.not = icmp eq i64 %34, 229
  br i1 %.not, label %102, label %35

35:                                               ; preds = %get_ftp_result.exit
  %36 = call i64 @_php_stream_write(ptr noundef nonnull %0, ptr noundef nonnull @.str.36, i64 noundef 6) #15
  store i8 0, ptr %4, align 16, !tbaa !17
  %37 = call ptr @_php_stream_get_line(ptr noundef nonnull %0, ptr noundef nonnull %4, i64 noundef 511, ptr noundef null) #15
  %.not14.i63 = icmp eq ptr %37, null
  br i1 %.not14.i63, label %get_ftp_result.exit71, label %.lr.ph.i64

.lr.ph.i64:                                       ; preds = %35
  %38 = tail call ptr @__ctype_b_loc() #17
  %39 = getelementptr inbounds nuw i8, ptr %4, i64 1
  %40 = getelementptr inbounds nuw i8, ptr %4, i64 2
  br label %41

41:                                               ; preds = %.backedge.i69, %.lr.ph.i64
  %42 = load ptr, ptr %38, align 8, !tbaa !18
  %43 = load i8, ptr %4, align 16, !tbaa !17
  %44 = sext i8 %43 to i64
  %45 = getelementptr inbounds i16, ptr %42, i64 %44
  %46 = load i16, ptr %45, align 2, !tbaa !20
  %47 = and i16 %46, 2048
  %.not8.i65 = icmp eq i16 %47, 0
  br i1 %.not8.i65, label %.backedge.i69, label %48

48:                                               ; preds = %41
  %49 = load i8, ptr %39, align 1, !tbaa !17
  %50 = sext i8 %49 to i64
  %51 = getelementptr inbounds i16, ptr %42, i64 %50
  %52 = load i16, ptr %51, align 2, !tbaa !20
  %53 = and i16 %52, 2048
  %.not9.i66 = icmp eq i16 %53, 0
  br i1 %.not9.i66, label %.backedge.i69, label %54

54:                                               ; preds = %48
  %55 = load i8, ptr %40, align 2, !tbaa !17
  %56 = sext i8 %55 to i64
  %57 = getelementptr inbounds i16, ptr %42, i64 %56
  %58 = load i16, ptr %57, align 2, !tbaa !20
  %59 = and i16 %58, 2048
  %.not10.i67 = icmp ne i16 %59, 0
  %60 = load i8, ptr %7, align 1
  %.not13.i68 = icmp eq i8 %60, 32
  %or.cond73 = select i1 %.not10.i67, i1 %.not13.i68, i1 false
  br i1 %or.cond73, label %get_ftp_result.exit71, label %.backedge.i69

.backedge.i69:                                    ; preds = %54, %48, %41
  %61 = call ptr @_php_stream_get_line(ptr noundef nonnull %0, ptr noundef nonnull %4, i64 noundef 511, ptr noundef null) #15
  %.not.i70 = icmp eq ptr %61, null
  br i1 %.not.i70, label %get_ftp_result.exit71, label %41

get_ftp_result.exit71:                            ; preds = %54, %.backedge.i69, %35
  %62 = call i64 @strtol(ptr noundef nonnull captures(none) %4, ptr noundef null, i32 noundef 10) #15
  %63 = and i64 %62, 4294967295
  %.not56 = icmp eq i64 %63, 227
  br i1 %.not56, label %64, label %.critedge.thread

64:                                               ; preds = %get_ftp_result.exit71
  %65 = getelementptr inbounds nuw i8, ptr %4, i64 4
  %66 = load i8, ptr %65, align 4, !tbaa !17
  %.not5780 = icmp eq i8 %66, 0
  br i1 %.not5780, label %.critedge.thread, label %.lr.ph

.lr.ph:                                           ; preds = %64
  %67 = tail call ptr @__ctype_b_loc() #17
  %68 = load ptr, ptr %67, align 8, !tbaa !18
  br label %69

69:                                               ; preds = %.lr.ph, %75
  %70 = phi i8 [ %66, %.lr.ph ], [ %77, %75 ]
  %.04281 = phi ptr [ %65, %.lr.ph ], [ %76, %75 ]
  %71 = sext i8 %70 to i64
  %72 = getelementptr inbounds i16, ptr %68, i64 %71
  %73 = load i16, ptr %72, align 2, !tbaa !20
  %74 = and i16 %73, 2048
  %.not58 = icmp eq i16 %74, 0
  br i1 %.not58, label %75, label %.preheader

75:                                               ; preds = %69
  %76 = getelementptr inbounds nuw i8, ptr %.04281, i64 1
  %77 = load i8, ptr %76, align 1, !tbaa !17
  %.not57 = icmp eq i8 %77, 0
  br i1 %.not57, label %.critedge.thread, label %69

.preheader:                                       ; preds = %69, %.critedge
  %.183 = phi ptr [ %85, %.critedge ], [ %.04281, %69 ]
  %.04482 = phi i32 [ %87, %.critedge ], [ 0, %69 ]
  %78 = load ptr, ptr %67, align 8, !tbaa !18
  br label %79

79:                                               ; preds = %79, %.preheader
  %.2 = phi ptr [ %85, %79 ], [ %.183, %.preheader ]
  %80 = load i8, ptr %.2, align 1, !tbaa !17
  %81 = sext i8 %80 to i64
  %82 = getelementptr inbounds i16, ptr %78, i64 %81
  %83 = load i16, ptr %82, align 2, !tbaa !20
  %84 = and i16 %83, 2048
  %.not61 = icmp eq i16 %84, 0
  %85 = getelementptr inbounds nuw i8, ptr %.2, i64 1
  br i1 %.not61, label %86, label %79

86:                                               ; preds = %79
  %.not62 = icmp eq i8 %80, 44
  br i1 %.not62, label %.critedge, label %.critedge.thread

.critedge:                                        ; preds = %86
  store i8 46, ptr %.2, align 1, !tbaa !17
  %87 = add nuw nsw i32 %.04482, 1
  %exitcond.not = icmp eq i32 %87, 4
  br i1 %exitcond.not, label %88, label %.preheader

88:                                               ; preds = %.critedge
  store i8 0, ptr %.2, align 1, !tbaa !17
  call void @llvm.memcpy.p0.p0.i64(ptr noundef nonnull align 1 dereferenceable(16) %1, ptr noundef nonnull align 1 dereferenceable(16) %.04281, i64 15, i1 false)
  %89 = getelementptr inbounds nuw i8, ptr %1, i64 15
  store i8 0, ptr %89, align 1, !tbaa !17
  %90 = call i64 @strtoul(ptr noundef nonnull %85, ptr noundef nonnull %5, i32 noundef 10) #15
  %91 = trunc i64 %90 to i16
  %92 = shl i16 %91, 8
  %93 = load ptr, ptr %5, align 8, !tbaa !9
  %94 = icmp eq ptr %93, null
  br i1 %94, label %.critedge.thread, label %95

95:                                               ; preds = %88
  %96 = load i8, ptr %93, align 1, !tbaa !17
  %.not60 = icmp eq i8 %96, 44
  br i1 %.not60, label %97, label %.critedge.thread

97:                                               ; preds = %95
  %98 = getelementptr inbounds nuw i8, ptr %93, i64 1
  %99 = call i64 @strtoul(ptr noundef nonnull %98, ptr noundef nonnull %5, i32 noundef 10) #15
  %100 = trunc i64 %99 to i16
  %101 = add i16 %92, %100
  br label %116

102:                                              ; preds = %get_ftp_result.exit
  %103 = getelementptr inbounds nuw i8, ptr %4, i64 4
  br label %104

104:                                              ; preds = %109, %102
  %.145 = phi i32 [ 0, %102 ], [ %.347, %109 ]
  %.3 = phi ptr [ %103, %102 ], [ %110, %109 ]
  %105 = load i8, ptr %.3, align 1, !tbaa !17
  switch i8 %105, label %109 [
    i8 0, label %111
    i8 124, label %106
  ]

106:                                              ; preds = %104
  %107 = add nsw i32 %.145, 1
  %108 = icmp eq i32 %107, 3
  br i1 %108, label %.thread, label %109

109:                                              ; preds = %104, %106
  %.347 = phi i32 [ %107, %106 ], [ %.145, %104 ]
  %110 = getelementptr inbounds nuw i8, ptr %.3, i64 1
  br label %104

111:                                              ; preds = %104
  %112 = icmp slt i32 %.145, 3
  br i1 %112, label %.critedge.thread, label %.thread

.thread:                                          ; preds = %106, %111
  %113 = getelementptr inbounds nuw i8, ptr %.3, i64 1
  %114 = call i64 @strtoul(ptr noundef nonnull %113, ptr noundef nonnull %5, i32 noundef 10) #15
  %115 = trunc i64 %114 to i16
  br label %116

116:                                              ; preds = %.thread, %97
  %.043 = phi i16 [ %101, %97 ], [ %115, %.thread ]
  %.0 = phi ptr [ %1, %97 ], [ null, %.thread ]
  %117 = load ptr, ptr %5, align 8, !tbaa !9
  %118 = icmp eq ptr %117, null
  br i1 %118, label %.critedge.thread, label %119

119:                                              ; preds = %116
  store ptr %.0, ptr %2, align 8, !tbaa !9
  br label %.critedge.thread

.critedge.thread:                                 ; preds = %75, %86, %64, %116, %111, %95, %88, %get_ftp_result.exit71, %119
  %.048 = phi i16 [ %.043, %119 ], [ 0, %get_ftp_result.exit71 ], [ 0, %88 ], [ 0, %95 ], [ 0, %111 ], [ 0, %116 ], [ 0, %64 ], [ 0, %86 ], [ 0, %75 ]
  call void @llvm.lifetime.end.p0(i64 8, ptr nonnull %5) #15
  call void @llvm.lifetime.end.p0(i64 512, ptr nonnull %4) #15
  ret i16 %.048
}